; Function Attrs: mustprogress nounwind uwtable
define hidden noundef ptr @_ZNK10SerialHeap11block_startEPKv(ptr nocapture noundef nonnull readonly align 8 dereferenceable(192) %0, ptr noundef %1) local_unnamed_addr #0 align 2 {
  %3 = getelementptr inbounds i8, ptr %0, i64 104
  %4 = load ptr, ptr %3, align 8
  %5 = getelementptr inbounds i8, ptr %4, i64 16
  %6 = load ptr, ptr %5, align 8
  %.not.i.i = icmp ule ptr %6, %1
  %7 = getelementptr inbounds i8, ptr %4, i64 24
  %8 = load i64, ptr %7, align 8
  %9 = getelementptr inbounds ptr, ptr %6, i64 %8
  %10 = icmp ugt ptr %9, %1
  %11 = select i1 %.not.i.i, i1 %10, i1 false
  br i1 %11, label %12, label %14

12:                                               ; preds = %2
  %13 = tail call noundef ptr @_ZNK16DefNewGeneration11block_startEPKv(ptr noundef nonnull align 8 dereferenceable(744) %4, ptr noundef %1) #16
  br label %18

14:                                               ; preds = %2
  %15 = getelementptr inbounds i8, ptr %0, i64 112
  %16 = load ptr, ptr %15, align 8
  %17 = tail call noundef ptr @_ZNK17TenuredGeneration11block_startEPKv(ptr noundef nonnull align 8 dereferenceable(248) %16, ptr noundef %1) #16
  br label %18

18:                                               ; preds = %14, %12
  %.0 = phi ptr [ %13, %12 ], [ %17, %14 ]
  ret ptr %.0
}